; Function Attrs: nounwind uwtable
define dso_local void @lua_pushboolean(ptr noundef %0, i32 noundef %1) local_unnamed_addr #1 {
  %.not = icmp eq i32 %1, 0
  %3 = select i1 %.not, i64 -140737488355329, i64 -281474976710657
  %4 = getelementptr inbounds nuw i8, ptr %0, i64 40
  %5 = load ptr, ptr %4, align 8, !tbaa !14
  store i64 %3, ptr %5, align 8, !tbaa !17
  %6 = load ptr, ptr %4, align 8, !tbaa !14
  %7 = getelementptr inbounds nuw i8, ptr %6, i64 8
  store ptr %7, ptr %4, align 8, !tbaa !14
  %8 = getelementptr inbounds nuw i8, ptr %0, i64 48
  %9 = load i64, ptr %8, align 8, !tbaa !16
  %10 = inttoptr i64 %9 to ptr
  %.not4 = icmp ult ptr %7, %10
  br i1 %.not4, label %12, label %11

11:                                               ; preds = %2
  tail call void @lj_state_growstack1(ptr noundef nonnull %0) #13
  br label %12

12:                                               ; preds = %11, %2
  ret void
}